target datalayout = "e-m:e-p270:32:32-p271:32:32-p272:64:64-i64:64-i128:128-f80:128-n8:16:32:64-S128"
target triple = "x86_64-pc-linux-gnu"

%struct.gmx_multisim_t = type { i32, i32, ptr, ptr }

@.str.1 = private unnamed_addr constant [131 x i8] c"generated/home/dtcxzyw/WorkSpace/Projects/compilers/llvm-opt-benchmark/bench/gromacs/gromacs/src/gromacs/mdrun/replicaexchange.cpp\00", align 1
@TMPI_BYTE = external constant ptr, align 8
@.str.101 = private unnamed_addr constant [4 x i8] c"buf\00", align 1

; Function Attrs: inlinehint mustprogress uwtable
define internal void @_ZL14gmx_sfree_implIA3_fEvPKcS2_iPT_(ptr noundef %0, ptr noundef %1, i32 noundef %2, ptr noundef %3) #7 {
  %5 = alloca ptr, align 8
  %6 = alloca ptr, align 8
  %7 = alloca i32, align 4
  %8 = alloca ptr, align 8
  store ptr %0, ptr %5, align 8, !tbaa !182
  store ptr %1, ptr %6, align 8, !tbaa !182
  store i32 %2, ptr %7, align 4, !tbaa !11
  store ptr %3, ptr %8, align 8, !tbaa !158
  %9 = load ptr, ptr %5, align 8, !tbaa !182
  %10 = load ptr, ptr %6, align 8, !tbaa !182
  %11 = load i32, ptr %7, align 4, !tbaa !11
  %12 = load ptr, ptr %8, align 8, !tbaa !158
  call void @_Z9save_freePKcS0_iPv(ptr noundef %9, ptr noundef %10, i32 noundef %11, ptr noundef %12)
  ret void
}

; Function Attrs: inlinehint mustprogress nounwind uwtable
define internal void @_ZL9copy_rvecPKfPf(ptr noundef %0, ptr noundef %1) #3 {
  %3 = alloca ptr, align 8
  %4 = alloca ptr, align 8
  store ptr %0, ptr %3, align 8, !tbaa !158
  store ptr %1, ptr %4, align 8, !tbaa !158
  %5 = load ptr, ptr %3, align 8, !tbaa !158
  %6 = getelementptr inbounds float, ptr %5, i64 0
  %7 = load float, ptr %6, align 4, !tbaa !144
  %8 = load ptr, ptr %4, align 8, !tbaa !158
  %9 = getelementptr inbounds float, ptr %8, i64 0
  store float %7, ptr %9, align 4, !tbaa !144
  %10 = load ptr, ptr %3, align 8, !tbaa !158
  %11 = getelementptr inbounds float, ptr %10, i64 1
  %12 = load float, ptr %11, align 4, !tbaa !144
  %13 = load ptr, ptr %4, align 8, !tbaa !158
  %14 = getelementptr inbounds float, ptr %13, i64 1
  store float %12, ptr %14, align 4, !tbaa !144
  %15 = load ptr, ptr %3, align 8, !tbaa !158
  %16 = getelementptr inbounds float, ptr %15, i64 2
  %17 = load float, ptr %16, align 4, !tbaa !144
  %18 = load ptr, ptr %4, align 8, !tbaa !158
  %19 = getelementptr inbounds float, ptr %18, i64 2
  store float %17, ptr %19, align 4, !tbaa !144
  ret void
}

; Function Attrs: inlinehint mustprogress uwtable
define internal void @_ZL13gmx_snew_implIA3_fEvPKcS2_iRPT_m(ptr noundef %0, ptr noundef %1, i32 noundef %2, ptr noundef nonnull align 8 dereferenceable(8) %3, i64 noundef %4) #7 {
  %6 = alloca ptr, align 8
  %7 = alloca ptr, align 8
  %8 = alloca i32, align 4
  %9 = alloca ptr, align 8
  %10 = alloca i64, align 8
  store ptr %0, ptr %6, align 8, !tbaa !182
  store ptr %1, ptr %7, align 8, !tbaa !182
  store i32 %2, ptr %8, align 4, !tbaa !11
  store ptr %3, ptr %9, align 8, !tbaa !194
  store i64 %4, ptr %10, align 8, !tbaa !188
  %11 = load ptr, ptr %6, align 8, !tbaa !182
  %12 = load ptr, ptr %7, align 8, !tbaa !182
  %13 = load i32, ptr %8, align 4, !tbaa !11
  %14 = load i64, ptr %10, align 8, !tbaa !188
  %15 = call noundef ptr @_Z11save_callocPKcS0_imm(ptr noundef %11, ptr noundef %12, i32 noundef %13, i64 noundef %14, i64 noundef 12)
  %16 = load ptr, ptr %9, align 8, !tbaa !194
  store ptr %15, ptr %16, align 8, !tbaa !158
  ret void
}

; Function Attrs: mustprogress uwtable
define internal void @_ZL14exchange_rvecsPK14gmx_multisim_tiPA3_fi(ptr noundef %0, i32 noundef %1, ptr noundef %2, i32 noundef %3) #0 {
  %5 = alloca ptr, align 8
  %6 = alloca i32, align 4
  %7 = alloca ptr, align 8
  %8 = alloca i32, align 4
  %9 = alloca ptr, align 8
  %10 = alloca i32, align 4
  %11 = alloca ptr, align 8
  store ptr %0, ptr %5, align 8, !tbaa !9
  store i32 %1, ptr %6, align 4, !tbaa !11
  store ptr %2, ptr %7, align 8, !tbaa !158
  store i32 %3, ptr %8, align 4, !tbaa !11
  call void @llvm.lifetime.start.p0(i64 8, ptr %9) #17
  call void @llvm.lifetime.start.p0(i64 4, ptr %10) #17
  %12 = load ptr, ptr %7, align 8, !tbaa !158
  %13 = icmp ne ptr %12, null
  br i1 %13, label %14, label %64

14:                                               ; preds = %4
  %15 = load i32, ptr %8, align 4, !tbaa !11
  %16 = sext i32 %15 to i64
  call void @_ZL13gmx_snew_implIA3_fEvPKcS2_iRPT_m(ptr noundef @.str.101, ptr noundef @.str.1, i32 noundef 597, ptr noundef nonnull align 8 dereferenceable(8) %9, i64 noundef %16)
  call void @llvm.lifetime.start.p0(i64 8, ptr %11) #17
  %17 = load ptr, ptr %7, align 8, !tbaa !158
  %18 = getelementptr inbounds [3 x float], ptr %17, i64 0
  %19 = getelementptr inbounds [3 x float], ptr %18, i64 0, i64 0
  %20 = load i32, ptr %8, align 4, !tbaa !11
  %21 = sext i32 %20 to i64
  %22 = mul i64 %21, 12
  %23 = trunc i64 %22 to i32
  %24 = load ptr, ptr @TMPI_BYTE, align 8, !tbaa !290
  %25 = load i32, ptr %6, align 4, !tbaa !11
  %26 = load ptr, ptr %5, align 8, !tbaa !9
  %27 = getelementptr inbounds nuw %struct.gmx_multisim_t, ptr %26, i32 0, i32 2
  %28 = load ptr, ptr %27, align 8, !tbaa !512
  %29 = call noundef i32 @_Z10tMPI_IsendPKviP14tmpi_datatype_iiP10tmpi_comm_PP9tmpi_req_(ptr noundef %19, i32 noundef %23, ptr noundef %24, i32 noundef %25, i32 noundef 0, ptr noundef %28, ptr noundef %11)
  %30 = load ptr, ptr %9, align 8, !tbaa !158
  %31 = getelementptr inbounds [3 x float], ptr %30, i64 0
  %32 = getelementptr inbounds [3 x float], ptr %31, i64 0, i64 0
  %33 = load i32, ptr %8, align 4, !tbaa !11
  %34 = sext i32 %33 to i64
  %35 = mul i64 %34, 12
  %36 = trunc i64 %35 to i32
  %37 = load ptr, ptr @TMPI_BYTE, align 8, !tbaa !290
  %38 = load i32, ptr %6, align 4, !tbaa !11
  %39 = load ptr, ptr %5, align 8, !tbaa !9
  %40 = getelementptr inbounds nuw %struct.gmx_multisim_t, ptr %39, i32 0, i32 2
  %41 = load ptr, ptr %40, align 8, !tbaa !512
  %42 = call noundef i32 @_Z9tMPI_RecvPviP14tmpi_datatype_iiP10tmpi_comm_P12tmpi_status_(ptr noundef %32, i32 noundef %36, ptr noundef %37, i32 noundef %38, i32 noundef 0, ptr noundef %41, ptr noundef null)
  %43 = call noundef i32 @_Z9tMPI_WaitPP9tmpi_req_P12tmpi_status_(ptr noundef %11, ptr noundef null)
  call void @llvm.lifetime.end.p0(i64 8, ptr %11) #17
  store i32 0, ptr %10, align 4, !tbaa !11
  br label %44

44:                                               ; preds = %59, %14
  %45 = load i32, ptr %10, align 4, !tbaa !11
  %46 = load i32, ptr %8, align 4, !tbaa !11
  %47 = icmp slt i32 %45, %46
  br i1 %47, label %48, label %62

48:                                               ; preds = %44
  %49 = load ptr, ptr %9, align 8, !tbaa !158
  %50 = load i32, ptr %10, align 4, !tbaa !11
  %51 = sext i32 %50 to i64
  %52 = getelementptr inbounds [3 x float], ptr %49, i64 %51
  %53 = getelementptr inbounds [3 x float], ptr %52, i64 0, i64 0
  %54 = load ptr, ptr %7, align 8, !tbaa !158
  %55 = load i32, ptr %10, align 4, !tbaa !11
  %56 = sext i32 %55 to i64
  %57 = getelementptr inbounds [3 x float], ptr %54, i64 %56
  %58 = getelementptr inbounds [3 x float], ptr %57, i64 0, i64 0
  call void @_ZL9copy_rvecPKfPf(ptr noundef %53, ptr noundef %58)
  br label %59

59:                                               ; preds = %48
  %60 = load i32, ptr %10, align 4, !tbaa !11
  %61 = add nsw i32 %60, 1
  store i32 %61, ptr %10, align 4, !tbaa !11
  br label %44, !llvm.loop !513

62:                                               ; preds = %44
  %63 = load ptr, ptr %9, align 8, !tbaa !158
  call void @_ZL14gmx_sfree_implIA3_fEvPKcS2_iPT_(ptr noundef @.str.101, ptr noundef @.str.1, i32 noundef 616, ptr noundef %63)
  br label %64

64:                                               ; preds = %62, %4
  call void @llvm.lifetime.end.p0(i64 4, ptr %10) #17
  call void @llvm.lifetime.end.p0(i64 8, ptr %9) #17
  ret void
}