; Function Attrs: mustprogress uwtable
define internal fastcc void @_ZL14exchange_rvecsPK14gmx_multisim_tiPA3_fi(ptr noundef readonly captures(none) %0, i32 noundef %1, ptr noundef %2, i32 noundef %3) unnamed_addr #0 {
  %5 = alloca ptr, align 8
  %.not = icmp eq ptr %2, null
  br i1 %.not, label %27, label %6

6:                                                ; preds = %4
  %7 = sext i32 %3 to i64
  %8 = tail call noundef ptr @_Z11save_callocPKcS0_imm(ptr noundef nonnull @.str.101, ptr noundef nonnull @.str.1, i32 noundef 597, i64 noundef range(i64 -2147483648, 2147483648) %7, i64 noundef 12)
  call void @llvm.lifetime.start.p0(i64 8, ptr nonnull %5) #22
  %9 = mul i32 %3, 12
  %10 = load ptr, ptr @TMPI_BYTE, align 8, !tbaa !258
  %11 = getelementptr inbounds nuw i8, ptr %0, i64 8
  %12 = load ptr, ptr %11, align 8, !tbaa !294
  %13 = call noundef i32 @_Z10tMPI_IsendPKviP14tmpi_datatype_iiP10tmpi_comm_PP9tmpi_req_(ptr noundef nonnull %2, i32 noundef %9, ptr noundef %10, i32 noundef %1, i32 noundef 0, ptr noundef %12, ptr noundef nonnull %5)
  %14 = load ptr, ptr %11, align 8, !tbaa !294
  %15 = call noundef i32 @_Z9tMPI_RecvPviP14tmpi_datatype_iiP10tmpi_comm_P12tmpi_status_(ptr noundef %8, i32 noundef %9, ptr noundef %10, i32 noundef %1, i32 noundef 0, ptr noundef %14, ptr noundef null)
  %16 = call noundef i32 @_Z9tMPI_WaitPP9tmpi_req_P12tmpi_status_(ptr noundef nonnull %5, ptr noundef null)
  call void @llvm.lifetime.end.p0(i64 8, ptr nonnull %5) #22
  %17 = icmp sgt i32 %3, 0
  br i1 %17, label %.lr.ph.preheader, label %._crit_edge

.lr.ph.preheader:                                 ; preds = %6
  %wide.trip.count = zext nneg i32 %3 to i64
  br label %.lr.ph

.lr.ph:                                           ; preds = %.lr.ph.preheader, %.lr.ph
  %indvars.iv = phi i64 [ 0, %.lr.ph.preheader ], [ %indvars.iv.next, %.lr.ph ]
  %18 = getelementptr inbounds nuw [3 x float], ptr %8, i64 %indvars.iv
  %19 = getelementptr inbounds nuw [3 x float], ptr %2, i64 %indvars.iv
  %20 = load float, ptr %18, align 4, !tbaa !133
  store float %20, ptr %19, align 4, !tbaa !133
  %21 = getelementptr inbounds nuw i8, ptr %18, i64 4
  %22 = load float, ptr %21, align 4, !tbaa !133
  %23 = getelementptr inbounds nuw i8, ptr %19, i64 4
  store float %22, ptr %23, align 4, !tbaa !133
  %24 = getelementptr inbounds nuw i8, ptr %18, i64 8
  %25 = load float, ptr %24, align 4, !tbaa !133
  %26 = getelementptr inbounds nuw i8, ptr %19, i64 8
  store float %25, ptr %26, align 4, !tbaa !133
  %indvars.iv.next = add nuw nsw i64 %indvars.iv, 1
  %exitcond.not = icmp eq i64 %indvars.iv.next, %wide.trip.count
  br i1 %exitcond.not, label %._crit_edge, label %.lr.ph, !llvm.loop !321

._crit_edge:                                      ; preds = %.lr.ph, %6
  call void @_Z9save_freePKcS0_iPv(ptr noundef nonnull @.str.101, ptr noundef nonnull @.str.1, i32 noundef 616, ptr noundef %8)
  br label %27

27:                                               ; preds = %._crit_edge, %4
  ret void
}